target datalayout = "e-m:e-p270:32:32-p271:32:32-p272:64:64-i64:64-i128:128-f80:128-n8:16:32:64-S128"
target triple = "x86_64-pc-linux-gnu"

; Function Attrs: inlinehint nounwind uwtable
define internal i32 @Abc_LitNotCond(i32 noundef %0, i32 noundef %1) #3 {
  %3 = alloca i32, align 4
  %4 = alloca i32, align 4
  store i32 %0, ptr %3, align 4, !tbaa !24
  store i32 %1, ptr %4, align 4, !tbaa !24
  %5 = load i32, ptr %3, align 4, !tbaa !24
  %6 = load i32, ptr %4, align 4, !tbaa !24
  %7 = icmp sgt i32 %6, 0
  %8 = zext i1 %7 to i32
  %9 = xor i32 %5, %8
  ret i32 %9
}

; Function Attrs: inlinehint nounwind uwtable
define internal i32 @Abc_Var2Lit(i32 noundef %0, i32 noundef %1) #3 {
  %3 = alloca i32, align 4
  %4 = alloca i32, align 4
  store i32 %0, ptr %3, align 4, !tbaa !24
  store i32 %1, ptr %4, align 4, !tbaa !24
  %5 = load i32, ptr %3, align 4, !tbaa !24
  %6 = load i32, ptr %3, align 4, !tbaa !24
  %7 = add nsw i32 %5, %6
  %8 = load i32, ptr %4, align 4, !tbaa !24
  %9 = add nsw i32 %7, %8
  ret i32 %9
}

; Function Attrs: nounwind uwtable
define i32 @Ifd_ManFindDsd_rec(ptr noundef %0, ptr noundef %1, ptr noundef %2, ptr noundef %3) #0 {
  %5 = alloca i32, align 4
  %6 = alloca ptr, align 8
  %7 = alloca ptr, align 8
  %8 = alloca ptr, align 8
  %9 = alloca ptr, align 8
  %10 = alloca i32, align 4
  %11 = alloca i32, align 4
  %12 = alloca ptr, align 8
  %13 = alloca i32, align 4
  %14 = alloca i32, align 4
  %15 = alloca ptr, align 8
  %16 = alloca i32, align 4
  %17 = alloca i32, align 4
  %18 = alloca [3 x i32], align 4
  %19 = alloca ptr, align 8
  %20 = alloca i32, align 4
  %21 = alloca ptr, align 8
  store ptr %0, ptr %6, align 8, !tbaa !3
  store ptr %1, ptr %7, align 8, !tbaa !80
  store ptr %2, ptr %8, align 8, !tbaa !81
  store ptr %3, ptr %9, align 8, !tbaa !51
  call void @llvm.lifetime.start.p0(i64 4, ptr %10) #12
  store i32 0, ptr %10, align 4, !tbaa !24
  %22 = load ptr, ptr %8, align 8, !tbaa !81
  %23 = load ptr, ptr %22, align 8, !tbaa !80
  %24 = load i8, ptr %23, align 1, !tbaa !53
  %25 = sext i8 %24 to i32
  %26 = icmp eq i32 %25, 33
  br i1 %26, label %27, label %31

27:                                               ; preds = %4
  %28 = load ptr, ptr %8, align 8, !tbaa !81
  %29 = load ptr, ptr %28, align 8, !tbaa !80
  %30 = getelementptr inbounds nuw i8, ptr %29, i32 1
  store ptr %30, ptr %28, align 8, !tbaa !80
  store i32 1, ptr %10, align 4, !tbaa !24
  br label %31

31:                                               ; preds = %27, %4
  %32 = load ptr, ptr %8, align 8, !tbaa !81
  %33 = load ptr, ptr %32, align 8, !tbaa !80
  %34 = load i8, ptr %33, align 1, !tbaa !53
  %35 = sext i8 %34 to i32
  %36 = icmp sge i32 %35, 97
  br i1 %36, label %37, label %46

37:                                               ; preds = %31
  %38 = load ptr, ptr %8, align 8, !tbaa !81
  %39 = load ptr, ptr %38, align 8, !tbaa !80
  %40 = load i8, ptr %39, align 1, !tbaa !53
  %41 = sext i8 %40 to i32
  %42 = icmp sle i32 %41, 102
  br i1 %42, label %43, label %46

43:                                               ; preds = %37
  %44 = load i32, ptr %10, align 4, !tbaa !24
  %45 = call i32 @Abc_Var2Lit(i32 noundef 1, i32 noundef %44)
  store i32 %45, ptr %5, align 4
  store i32 1, ptr %11, align 4
  br label %189

46:                                               ; preds = %37, %31
  %47 = load ptr, ptr %8, align 8, !tbaa !81
  %48 = load ptr, ptr %47, align 8, !tbaa !80
  %49 = load i8, ptr %48, align 1, !tbaa !53
  %50 = sext i8 %49 to i32
  %51 = icmp eq i32 %50, 40
  br i1 %51, label %52, label %91

52:                                               ; preds = %46
  call void @llvm.lifetime.start.p0(i64 8, ptr %12) #12
  %53 = load ptr, ptr %7, align 8, !tbaa !80
  %54 = load ptr, ptr %9, align 8, !tbaa !51
  %55 = load ptr, ptr %8, align 8, !tbaa !81
  %56 = load ptr, ptr %55, align 8, !tbaa !80
  %57 = load ptr, ptr %7, align 8, !tbaa !80
  %58 = ptrtoint ptr %56 to i64
  %59 = ptrtoint ptr %57 to i64
  %60 = sub i64 %58, %59
  %61 = getelementptr inbounds i32, ptr %54, i64 %60
  %62 = load i32, ptr %61, align 4, !tbaa !24
  %63 = sext i32 %62 to i64
  %64 = getelementptr inbounds i8, ptr %53, i64 %63
  store ptr %64, ptr %12, align 8, !tbaa !80
  call void @llvm.lifetime.start.p0(i64 4, ptr %13) #12
  call void @llvm.lifetime.start.p0(i64 4, ptr %14) #12
  store i32 1, ptr %14, align 4, !tbaa !24
  %65 = load ptr, ptr %8, align 8, !tbaa !81
  %66 = load ptr, ptr %65, align 8, !tbaa !80
  %67 = getelementptr inbounds nuw i8, ptr %66, i32 1
  store ptr %67, ptr %65, align 8, !tbaa !80
  br label %68

68:                                               ; preds = %83, %52
  %69 = load ptr, ptr %8, align 8, !tbaa !81
  %70 = load ptr, ptr %69, align 8, !tbaa !80
  %71 = load ptr, ptr %12, align 8, !tbaa !80
  %72 = icmp ult ptr %70, %71
  br i1 %72, label %73, label %87

73:                                               ; preds = %68
  %74 = load ptr, ptr %6, align 8, !tbaa !3
  %75 = load ptr, ptr %7, align 8, !tbaa !80
  %76 = load ptr, ptr %8, align 8, !tbaa !81
  %77 = load ptr, ptr %9, align 8, !tbaa !51
  %78 = call i32 @Ifd_ManFindDsd_rec(ptr noundef %74, ptr noundef %75, ptr noundef %76, ptr noundef %77)
  store i32 %78, ptr %13, align 4, !tbaa !24
  %79 = load ptr, ptr %6, align 8, !tbaa !3
  %80 = load i32, ptr %14, align 4, !tbaa !24
  %81 = load i32, ptr %13, align 4, !tbaa !24
  %82 = call i32 @Ifd_ManOper(ptr noundef %79, i32 noundef %80, i32 noundef %81, i32 noundef 0, i32 noundef 1)
  store i32 %82, ptr %14, align 4, !tbaa !24
  br label %83

83:                                               ; preds = %73
  %84 = load ptr, ptr %8, align 8, !tbaa !81
  %85 = load ptr, ptr %84, align 8, !tbaa !80
  %86 = getelementptr inbounds nuw i8, ptr %85, i32 1
  store ptr %86, ptr %84, align 8, !tbaa !80
  br label %68, !llvm.loop !83

87:                                               ; preds = %68
  %88 = load i32, ptr %14, align 4, !tbaa !24
  %89 = load i32, ptr %10, align 4, !tbaa !24
  %90 = call i32 @Abc_LitNotCond(i32 noundef %88, i32 noundef %89)
  store i32 %90, ptr %5, align 4
  store i32 1, ptr %11, align 4
  call void @llvm.lifetime.end.p0(i64 4, ptr %14) #12
  call void @llvm.lifetime.end.p0(i64 4, ptr %13) #12
  call void @llvm.lifetime.end.p0(i64 8, ptr %12) #12
  br label %189

91:                                               ; preds = %46
  %92 = load ptr, ptr %8, align 8, !tbaa !81
  %93 = load ptr, ptr %92, align 8, !tbaa !80
  %94 = load i8, ptr %93, align 1, !tbaa !53
  %95 = sext i8 %94 to i32
  %96 = icmp eq i32 %95, 91
  br i1 %96, label %97, label %136

97:                                               ; preds = %91
  call void @llvm.lifetime.start.p0(i64 8, ptr %15) #12
  %98 = load ptr, ptr %7, align 8, !tbaa !80
  %99 = load ptr, ptr %9, align 8, !tbaa !51
  %100 = load ptr, ptr %8, align 8, !tbaa !81
  %101 = load ptr, ptr %100, align 8, !tbaa !80
  %102 = load ptr, ptr %7, align 8, !tbaa !80
  %103 = ptrtoint ptr %101 to i64
  %104 = ptrtoint ptr %102 to i64
  %105 = sub i64 %103, %104
  %106 = getelementptr inbounds i32, ptr %99, i64 %105
  %107 = load i32, ptr %106, align 4, !tbaa !24
  %108 = sext i32 %107 to i64
  %109 = getelementptr inbounds i8, ptr %98, i64 %108
  store ptr %109, ptr %15, align 8, !tbaa !80
  call void @llvm.lifetime.start.p0(i64 4, ptr %16) #12
  call void @llvm.lifetime.start.p0(i64 4, ptr %17) #12
  store i32 0, ptr %17, align 4, !tbaa !24
  %110 = load ptr, ptr %8, align 8, !tbaa !81
  %111 = load ptr, ptr %110, align 8, !tbaa !80
  %112 = getelementptr inbounds nuw i8, ptr %111, i32 1
  store ptr %112, ptr %110, align 8, !tbaa !80
  br label %113

113:                                              ; preds = %128, %97
  %114 = load ptr, ptr %8, align 8, !tbaa !81
  %115 = load ptr, ptr %114, align 8, !tbaa !80
  %116 = load ptr, ptr %15, align 8, !tbaa !80
  %117 = icmp ult ptr %115, %116
  br i1 %117, label %118, label %132

118:                                              ; preds = %113
  %119 = load ptr, ptr %6, align 8, !tbaa !3
  %120 = load ptr, ptr %7, align 8, !tbaa !80
  %121 = load ptr, ptr %8, align 8, !tbaa !81
  %122 = load ptr, ptr %9, align 8, !tbaa !51
  %123 = call i32 @Ifd_ManFindDsd_rec(ptr noundef %119, ptr noundef %120, ptr noundef %121, ptr noundef %122)
  store i32 %123, ptr %16, align 4, !tbaa !24
  %124 = load ptr, ptr %6, align 8, !tbaa !3
  %125 = load i32, ptr %17, align 4, !tbaa !24
  %126 = load i32, ptr %16, align 4, !tbaa !24
  %127 = call i32 @Ifd_ManOper(ptr noundef %124, i32 noundef %125, i32 noundef %126, i32 noundef 0, i32 noundef 2)
  store i32 %127, ptr %17, align 4, !tbaa !24
  br label %128

128:                                              ; preds = %118
  %129 = load ptr, ptr %8, align 8, !tbaa !81
  %130 = load ptr, ptr %129, align 8, !tbaa !80
  %131 = getelementptr inbounds nuw i8, ptr %130, i32 1
  store ptr %131, ptr %129, align 8, !tbaa !80
  br label %113, !llvm.loop !84

132:                                              ; preds = %113
  %133 = load i32, ptr %17, align 4, !tbaa !24
  %134 = load i32, ptr %10, align 4, !tbaa !24
  %135 = call i32 @Abc_LitNotCond(i32 noundef %133, i32 noundef %134)
  store i32 %135, ptr %5, align 4
  store i32 1, ptr %11, align 4
  call void @llvm.lifetime.end.p0(i64 4, ptr %17) #12
  call void @llvm.lifetime.end.p0(i64 4, ptr %16) #12
  call void @llvm.lifetime.end.p0(i64 8, ptr %15) #12
  br label %189

136:                                              ; preds = %91
  %137 = load ptr, ptr %8, align 8, !tbaa !81
  %138 = load ptr, ptr %137, align 8, !tbaa !80
  %139 = load i8, ptr %138, align 1, !tbaa !53
  %140 = sext i8 %139 to i32
  %141 = icmp eq i32 %140, 60
  br i1 %141, label %142, label %188

142:                                              ; preds = %136
  call void @llvm.lifetime.start.p0(i64 12, ptr %18) #12
  call void @llvm.lifetime.start.p0(i64 8, ptr %19) #12
  %143 = getelementptr inbounds [3 x i32], ptr %18, i64 0, i64 0
  store ptr %143, ptr %19, align 8, !tbaa !51
  call void @llvm.lifetime.start.p0(i64 4, ptr %20) #12
  call void @llvm.lifetime.start.p0(i64 8, ptr %21) #12
  %144 = load ptr, ptr %7, align 8, !tbaa !80
  %145 = load ptr, ptr %9, align 8, !tbaa !51
  %146 = load ptr, ptr %8, align 8, !tbaa !81
  %147 = load ptr, ptr %146, align 8, !tbaa !80
  %148 = load ptr, ptr %7, align 8, !tbaa !80
  %149 = ptrtoint ptr %147 to i64
  %150 = ptrtoint ptr %148 to i64
  %151 = sub i64 %149, %150
  %152 = getelementptr inbounds i32, ptr %145, i64 %151
  %153 = load i32, ptr %152, align 4, !tbaa !24
  %154 = sext i32 %153 to i64
  %155 = getelementptr inbounds i8, ptr %144, i64 %154
  store ptr %155, ptr %21, align 8, !tbaa !80
  %156 = load ptr, ptr %8, align 8, !tbaa !81
  %157 = load ptr, ptr %156, align 8, !tbaa !80
  %158 = getelementptr inbounds nuw i8, ptr %157, i32 1
  store ptr %158, ptr %156, align 8, !tbaa !80
  br label %159

159:                                              ; preds = %172, %142
  %160 = load ptr, ptr %8, align 8, !tbaa !81
  %161 = load ptr, ptr %160, align 8, !tbaa !80
  %162 = load ptr, ptr %21, align 8, !tbaa !80
  %163 = icmp ult ptr %161, %162
  br i1 %163, label %164, label %176

164:                                              ; preds = %159
  %165 = load ptr, ptr %6, align 8, !tbaa !3
  %166 = load ptr, ptr %7, align 8, !tbaa !80
  %167 = load ptr, ptr %8, align 8, !tbaa !81
  %168 = load ptr, ptr %9, align 8, !tbaa !51
  %169 = call i32 @Ifd_ManFindDsd_rec(ptr noundef %165, ptr noundef %166, ptr noundef %167, ptr noundef %168)
  %170 = load ptr, ptr %19, align 8, !tbaa !51
  %171 = getelementptr inbounds nuw i32, ptr %170, i32 1
  store ptr %171, ptr %19, align 8, !tbaa !51
  store i32 %169, ptr %170, align 4, !tbaa !24
  br label %172

172:                                              ; preds = %164
  %173 = load ptr, ptr %8, align 8, !tbaa !81
  %174 = load ptr, ptr %173, align 8, !tbaa !80
  %175 = getelementptr inbounds nuw i8, ptr %174, i32 1
  store ptr %175, ptr %173, align 8, !tbaa !80
  br label %159, !llvm.loop !85

176:                                              ; preds = %159
  %177 = load ptr, ptr %6, align 8, !tbaa !3
  %178 = getelementptr inbounds [3 x i32], ptr %18, i64 0, i64 2
  %179 = load i32, ptr %178, align 4, !tbaa !24
  %180 = getelementptr inbounds [3 x i32], ptr %18, i64 0, i64 1
  %181 = load i32, ptr %180, align 4, !tbaa !24
  %182 = getelementptr inbounds [3 x i32], ptr %18, i64 0, i64 0
  %183 = load i32, ptr %182, align 4, !tbaa !24
  %184 = call i32 @Ifd_ManOper(ptr noundef %177, i32 noundef %179, i32 noundef %181, i32 noundef %183, i32 noundef 3)
  store i32 %184, ptr %20, align 4, !tbaa !24
  %185 = load i32, ptr %20, align 4, !tbaa !24
  %186 = load i32, ptr %10, align 4, !tbaa !24
  %187 = call i32 @Abc_LitNotCond(i32 noundef %185, i32 noundef %186)
  store i32 %187, ptr %5, align 4
  store i32 1, ptr %11, align 4
  call void @llvm.lifetime.end.p0(i64 8, ptr %21) #12
  call void @llvm.lifetime.end.p0(i64 4, ptr %20) #12
  call void @llvm.lifetime.end.p0(i64 8, ptr %19) #12
  call void @llvm.lifetime.end.p0(i64 12, ptr %18) #12
  br label %189

188:                                              ; preds = %136
  store i32 0, ptr %5, align 4
  store i32 1, ptr %11, align 4
  br label %189

189:                                              ; preds = %188, %176, %132, %87, %43
  call void @llvm.lifetime.end.p0(i64 4, ptr %10) #12
  %190 = load i32, ptr %5, align 4
  ret i32 %190
}