; Function Attrs: nounwind uwtable
define i32 @Ifd_ManFindDsd_rec(ptr noundef %0, ptr noundef %1, ptr noundef %2, ptr noundef %3) local_unnamed_addr #5 {
  %5 = alloca [3 x i32], align 4
  %6 = load ptr, ptr %2, align 8, !tbaa !68
  %7 = load i8, ptr %6, align 1, !tbaa !44
  %8 = icmp eq i8 %7, 33
  br i1 %8, label %9, label %11

9:                                                ; preds = %4
  %10 = getelementptr inbounds nuw i8, ptr %6, i64 1
  store ptr %10, ptr %2, align 8, !tbaa !68
  %.pre = load i8, ptr %10, align 1, !tbaa !44
  br label %11

11:                                               ; preds = %9, %4
  %12 = phi i8 [ %.pre, %9 ], [ %7, %4 ]
  %13 = phi ptr [ %10, %9 ], [ %6, %4 ]
  %.058 = phi i32 [ 3, %9 ], [ 2, %4 ]
  %14 = add i8 %12, -97
  %or.cond = icmp ult i8 %14, 6
  br i1 %or.cond, label %69, label %15

15:                                               ; preds = %11
  switch i8 %12, label %69 [
    i8 40, label %16
    i8 91, label %31
    i8 60, label %46
  ]

16:                                               ; preds = %15
  %17 = ptrtoint ptr %13 to i64
  %18 = ptrtoint ptr %1 to i64
  %19 = sub i64 %17, %18
  %20 = getelementptr inbounds i32, ptr %3, i64 %19
  %21 = load i32, ptr %20, align 4, !tbaa !37
  %22 = sext i32 %21 to i64
  %23 = getelementptr inbounds i8, ptr %1, i64 %22
  %storemerge6675 = getelementptr inbounds nuw i8, ptr %13, i64 1
  store ptr %storemerge6675, ptr %2, align 8, !tbaa !68
  %24 = icmp ult ptr %storemerge6675, %23
  br i1 %24, label %.lr.ph78, label %._crit_edge79

.lr.ph78:                                         ; preds = %16, %.lr.ph78
  %.06176 = phi i32 [ %26, %.lr.ph78 ], [ 1, %16 ]
  %25 = tail call i32 @Ifd_ManFindDsd_rec(ptr noundef %0, ptr noundef %1, ptr noundef nonnull %2, ptr noundef %3)
  %26 = tail call i32 @Ifd_ManOper(ptr noundef %0, i32 noundef %.06176, i32 noundef %25, i32 noundef 0, i32 noundef 1)
  %27 = load ptr, ptr %2, align 8, !tbaa !68
  %storemerge66 = getelementptr inbounds nuw i8, ptr %27, i64 1
  store ptr %storemerge66, ptr %2, align 8, !tbaa !68
  %28 = icmp ult ptr %storemerge66, %23
  br i1 %28, label %.lr.ph78, label %._crit_edge79, !llvm.loop !69

._crit_edge79:                                    ; preds = %.lr.ph78, %16
  %.061.lcssa = phi i32 [ 1, %16 ], [ %26, %.lr.ph78 ]
  %29 = zext i1 %8 to i32
  %30 = xor i32 %.061.lcssa, %29
  br label %69

31:                                               ; preds = %15
  %32 = ptrtoint ptr %13 to i64
  %33 = ptrtoint ptr %1 to i64
  %34 = sub i64 %32, %33
  %35 = getelementptr inbounds i32, ptr %3, i64 %34
  %36 = load i32, ptr %35, align 4, !tbaa !37
  %37 = sext i32 %36 to i64
  %38 = getelementptr inbounds i8, ptr %1, i64 %37
  %storemerge6470 = getelementptr inbounds nuw i8, ptr %13, i64 1
  store ptr %storemerge6470, ptr %2, align 8, !tbaa !68
  %39 = icmp ult ptr %storemerge6470, %38
  br i1 %39, label %.lr.ph73, label %._crit_edge74

.lr.ph73:                                         ; preds = %31, %.lr.ph73
  %.06071 = phi i32 [ %41, %.lr.ph73 ], [ 0, %31 ]
  %40 = tail call i32 @Ifd_ManFindDsd_rec(ptr noundef %0, ptr noundef %1, ptr noundef nonnull %2, ptr noundef %3)
  %41 = tail call i32 @Ifd_ManOper(ptr noundef %0, i32 noundef %.06071, i32 noundef %40, i32 noundef 0, i32 noundef 2)
  %42 = load ptr, ptr %2, align 8, !tbaa !68
  %storemerge64 = getelementptr inbounds nuw i8, ptr %42, i64 1
  store ptr %storemerge64, ptr %2, align 8, !tbaa !68
  %43 = icmp ult ptr %storemerge64, %38
  br i1 %43, label %.lr.ph73, label %._crit_edge74, !llvm.loop !70

._crit_edge74:                                    ; preds = %.lr.ph73, %31
  %.060.lcssa = phi i32 [ 0, %31 ], [ %41, %.lr.ph73 ]
  %44 = zext i1 %8 to i32
  %45 = xor i32 %.060.lcssa, %44
  br label %69

46:                                               ; preds = %15
  call void @llvm.lifetime.start.p0(i64 12, ptr nonnull %5) #28
  %47 = ptrtoint ptr %13 to i64
  %48 = ptrtoint ptr %1 to i64
  %49 = sub i64 %47, %48
  %50 = getelementptr inbounds i32, ptr %3, i64 %49
  %51 = load i32, ptr %50, align 4, !tbaa !37
  %52 = sext i32 %51 to i64
  %53 = getelementptr inbounds i8, ptr %1, i64 %52
  %storemerge68 = getelementptr inbounds nuw i8, ptr %13, i64 1
  store ptr %storemerge68, ptr %2, align 8, !tbaa !68
  %54 = icmp ult ptr %storemerge68, %53
  br i1 %54, label %.lr.ph, label %._crit_edge

.lr.ph:                                           ; preds = %46, %.lr.ph
  %.05969 = phi ptr [ %56, %.lr.ph ], [ %5, %46 ]
  %55 = tail call i32 @Ifd_ManFindDsd_rec(ptr noundef %0, ptr noundef %1, ptr noundef nonnull %2, ptr noundef %3)
  %56 = getelementptr inbounds nuw i8, ptr %.05969, i64 4
  store i32 %55, ptr %.05969, align 4, !tbaa !37
  %57 = load ptr, ptr %2, align 8, !tbaa !68
  %storemerge = getelementptr inbounds nuw i8, ptr %57, i64 1
  store ptr %storemerge, ptr %2, align 8, !tbaa !68
  %58 = icmp ult ptr %storemerge, %53
  br i1 %58, label %.lr.ph, label %._crit_edge.loopexit, !llvm.loop !71

._crit_edge.loopexit:                             ; preds = %.lr.ph
  %.phi.trans.insert = getelementptr inbounds nuw i8, ptr %5, i64 8
  %.pre82 = load i32, ptr %.phi.trans.insert, align 4, !tbaa !37
  %.phi.trans.insert83 = getelementptr inbounds nuw i8, ptr %5, i64 4
  %.pre84 = load i32, ptr %.phi.trans.insert83, align 4, !tbaa !37
  %.pre85 = load i32, ptr %5, align 4, !tbaa !37
  br label %._crit_edge

._crit_edge:                                      ; preds = %._crit_edge.loopexit, %46
  %59 = phi i32 [ %.pre85, %._crit_edge.loopexit ], [ undef, %46 ]
  %60 = phi i32 [ %.pre84, %._crit_edge.loopexit ], [ undef, %46 ]
  %61 = phi i32 [ %.pre82, %._crit_edge.loopexit ], [ undef, %46 ]
  %62 = and i32 %59, 1
  %.not.i = icmp eq i32 %62, 0
  %.172.i = and i32 %59, -2
  %.168.i = select i1 %.not.i, i32 %60, i32 %61
  %.2.i = select i1 %.not.i, i32 %61, i32 %60
  %63 = and i32 %.168.i, 1
  %.067.i = and i32 %.168.i, -2
  %.065.i = xor i32 %63, %.2.i
  %64 = tail call i32 @Ifd_ManHashFindOrAdd(ptr noundef %0, i32 noundef %.065.i, i32 noundef %.067.i, i32 noundef %.172.i, i32 noundef 3)
  %65 = shl nsw i32 %64, 1
  %66 = or disjoint i32 %63, %65
  %67 = zext i1 %8 to i32
  %68 = xor i32 %66, %67
  call void @llvm.lifetime.end.p0(i64 12, ptr nonnull %5) #28
  br label %69

69:                                               ; preds = %11, %15, %._crit_edge, %._crit_edge74, %._crit_edge79
  %.0 = phi i32 [ %30, %._crit_edge79 ], [ %45, %._crit_edge74 ], [ %68, %._crit_edge ], [ 0, %15 ], [ %.058, %11 ]
  ret i32 %.0
}